target datalayout = "e-m:e-p270:32:32-p271:32:32-p272:64:64-i64:64-i128:128-f80:128-n8:16:32:64-S128"
target triple = "x86_64-pc-linux-gnu"

%struct._GArray = type { ptr, i32 }
%struct.open_info = type { ptr, i32, ptr, ptr, ptr, ptr }

@open_info_arr = internal global ptr null, align 8
@open_routines = global ptr null, align 8
@.str = private unnamed_addr constant [2 x i8] c";\00", align 1
@heuristic_open_routine_idx = internal global i32 0, align 4

; Function Attrs: nounwind null_pointer_is_valid sspstrong uwtable
define internal void @set_heuristic_routine() #2 {
  %1 = alloca i32, align 4
  call void @llvm.lifetime.start.p0(i64 4, ptr %1) #12
  br label %2

2:                                                ; preds = %0
  br label %3

3:                                                ; preds = %2
  br label %4

4:                                                ; preds = %3
  store i32 0, ptr %1, align 4
  br label %5

5:                                                ; preds = %25, %4
  %6 = load i32, ptr %1, align 4
  %7 = load ptr, ptr @open_info_arr, align 8
  %8 = getelementptr inbounds nuw %struct._GArray, ptr %7, i32 0, i32 1
  %9 = load i32, ptr %8, align 8
  %10 = icmp ult i32 %6, %9
  br i1 %10, label %11, label %28

11:                                               ; preds = %5
  %12 = load ptr, ptr @open_routines, align 8
  %13 = load i32, ptr %1, align 4
  %14 = zext i32 %13 to i64
  %15 = getelementptr %struct.open_info, ptr %12, i64 %14
  %16 = getelementptr inbounds nuw %struct.open_info, ptr %15, i32 0, i32 1
  %17 = load i32, ptr %16, align 8
  %18 = icmp eq i32 %17, 1
  br i1 %18, label %19, label %21

19:                                               ; preds = %11
  %20 = load i32, ptr %1, align 4
  store i32 %20, ptr @heuristic_open_routine_idx, align 4
  br label %28

21:                                               ; preds = %11
  br label %22

22:                                               ; preds = %21
  br label %23

23:                                               ; preds = %22
  br label %24

24:                                               ; preds = %23
  br label %25

25:                                               ; preds = %24
  %26 = load i32, ptr %1, align 4
  %27 = add i32 %26, 1
  store i32 %27, ptr %1, align 4
  br label %5, !llvm.loop !9

28:                                               ; preds = %19, %5
  br label %29

29:                                               ; preds = %28
  br label %30

30:                                               ; preds = %29
  br label %31

31:                                               ; preds = %30
  call void @llvm.lifetime.end.p0(i64 4, ptr %1) #12
  ret void
}

; Function Attrs: null_pointer_is_valid sspstrong uwtable
define void @init_open_routines() #0 {
  %1 = alloca i32, align 4
  %2 = alloca ptr, align 8
  %3 = alloca i32, align 4
  call void @llvm.lifetime.start.p0(i64 4, ptr %1) #12
  call void @llvm.lifetime.start.p0(i64 8, ptr %2) #12
  %4 = load ptr, ptr @open_info_arr, align 8
  %5 = icmp ne ptr %4, null
  br i1 %5, label %6, label %7

6:                                                ; preds = %0
  store i32 1, ptr %3, align 4
  br label %40

7:                                                ; preds = %0
  %8 = call ptr @g_array_new(i32 noundef 1, i32 noundef 1, i32 noundef 48)
  store ptr %8, ptr @open_info_arr, align 8
  %9 = load ptr, ptr @open_info_arr, align 8
  %10 = call ptr @g_array_append_vals(ptr noundef %9, ptr noundef @open_info_base, i32 noundef 69)
  %11 = load ptr, ptr @open_info_arr, align 8
  %12 = getelementptr inbounds nuw %struct._GArray, ptr %11, i32 0, i32 0
  %13 = load ptr, ptr %12, align 8
  store ptr %13, ptr @open_routines, align 8
  store i32 0, ptr %1, align 4
  %14 = load ptr, ptr @open_routines, align 8
  store ptr %14, ptr %2, align 8
  br label %15

15:                                               ; preds = %34, %7
  %16 = load i32, ptr %1, align 4
  %17 = load ptr, ptr @open_info_arr, align 8
  %18 = getelementptr inbounds nuw %struct._GArray, ptr %17, i32 0, i32 1
  %19 = load i32, ptr %18, align 8
  %20 = icmp ult i32 %16, %19
  br i1 %20, label %21, label %39

21:                                               ; preds = %15
  %22 = load ptr, ptr %2, align 8
  %23 = getelementptr inbounds nuw %struct.open_info, ptr %22, i32 0, i32 3
  %24 = load ptr, ptr %23, align 8
  %25 = icmp ne ptr %24, null
  br i1 %25, label %26, label %33

26:                                               ; preds = %21
  %27 = load ptr, ptr %2, align 8
  %28 = getelementptr inbounds nuw %struct.open_info, ptr %27, i32 0, i32 3
  %29 = load ptr, ptr %28, align 8
  %30 = call ptr @g_strsplit(ptr noundef %29, ptr noundef @.str, i32 noundef 0)
  %31 = load ptr, ptr %2, align 8
  %32 = getelementptr inbounds nuw %struct.open_info, ptr %31, i32 0, i32 4
  store ptr %30, ptr %32, align 8
  br label %33

33:                                               ; preds = %26, %21
  br label %34

34:                                               ; preds = %33
  %35 = load i32, ptr %1, align 4
  %36 = add i32 %35, 1
  store i32 %36, ptr %1, align 4
  %37 = load ptr, ptr %2, align 8
  %38 = getelementptr %struct.open_info, ptr %37, i32 1
  store ptr %38, ptr %2, align 8
  br label %15, !llvm.loop !8

39:                                               ; preds = %15
  call void @set_heuristic_routine()
  store i32 0, ptr %3, align 4
  br label %40

40:                                               ; preds = %39, %6
  call void @llvm.lifetime.end.p0(i64 8, ptr %2) #12
  call void @llvm.lifetime.end.p0(i64 4, ptr %1) #12
  %41 = load i32, ptr %3, align 4
  switch i32 %41, label %43 [
    i32 0, label %42
    i32 1, label %42
  ]

42:                                               ; preds = %40, %40
  ret void

43:                                               ; preds = %40
  unreachable
}