; Function Attrs: null_pointer_is_valid sspstrong uwtable
define void @init_open_routines() local_unnamed_addr #0 {
  %1 = load ptr, ptr @open_info_arr, align 8
  %.not = icmp eq ptr %1, null
  br i1 %.not, label %2, label %set_heuristic_routine.exit

2:                                                ; preds = %0
  %3 = tail call ptr @g_array_new(i32 noundef 1, i32 noundef 1, i32 noundef 48)
  store ptr %3, ptr @open_info_arr, align 8
  %4 = tail call ptr @g_array_append_vals(ptr noundef %3, ptr noundef nonnull @open_info_base, i32 noundef 69)
  %5 = load ptr, ptr @open_info_arr, align 8
  %6 = load ptr, ptr %5, align 8
  store ptr %6, ptr @open_routines, align 8
  %7 = getelementptr inbounds nuw i8, ptr %5, i64 8
  %8 = load i32, ptr %7, align 8
  %.not11 = icmp eq i32 %8, 0
  br i1 %.not11, label %set_heuristic_routine.exit, label %.lr.ph

.lr.ph:                                           ; preds = %2, %15
  %9 = phi ptr [ %16, %15 ], [ %5, %2 ]
  %.010 = phi ptr [ %18, %15 ], [ %6, %2 ]
  %.059 = phi i32 [ %17, %15 ], [ 0, %2 ]
  %10 = getelementptr inbounds nuw i8, ptr %.010, i64 24
  %11 = load ptr, ptr %10, align 8
  %.not7 = icmp eq ptr %11, null
  br i1 %.not7, label %15, label %12

12:                                               ; preds = %.lr.ph
  %13 = tail call ptr @g_strsplit(ptr noundef nonnull %11, ptr noundef nonnull @.str, i32 noundef 0)
  %14 = getelementptr inbounds nuw i8, ptr %.010, i64 32
  store ptr %13, ptr %14, align 8
  %.pre = load ptr, ptr @open_info_arr, align 8
  br label %15

15:                                               ; preds = %.lr.ph, %12
  %16 = phi ptr [ %9, %.lr.ph ], [ %.pre, %12 ]
  %17 = add nuw i32 %.059, 1
  %18 = getelementptr i8, ptr %.010, i64 48
  %19 = getelementptr inbounds nuw i8, ptr %16, i64 8
  %20 = load i32, ptr %19, align 8
  %21 = icmp ult i32 %17, %20
  br i1 %21, label %.lr.ph, label %._crit_edge, !llvm.loop !9

._crit_edge:                                      ; preds = %15
  %.not.i = icmp eq i32 %20, 0
  br i1 %.not.i, label %set_heuristic_routine.exit, label %.lr.ph.i

.lr.ph.i:                                         ; preds = %._crit_edge
  %22 = load ptr, ptr @open_routines, align 8
  %wide.trip.count.i = zext i32 %20 to i64
  br label %23

23:                                               ; preds = %29, %.lr.ph.i
  %indvars.iv.i = phi i64 [ 0, %.lr.ph.i ], [ %indvars.iv.next.i, %29 ]
  %24 = getelementptr %struct.open_info, ptr %22, i64 %indvars.iv.i, i32 1
  %25 = load i32, ptr %24, align 8
  %26 = icmp eq i32 %25, 1
  br i1 %26, label %27, label %29

27:                                               ; preds = %23
  %28 = trunc nuw i64 %indvars.iv.i to i32
  store i32 %28, ptr @heuristic_open_routine_idx, align 4
  br label %set_heuristic_routine.exit

29:                                               ; preds = %23
  %indvars.iv.next.i = add nuw nsw i64 %indvars.iv.i, 1
  %exitcond.not.i = icmp eq i64 %indvars.iv.next.i, %wide.trip.count.i
  br i1 %exitcond.not.i, label %set_heuristic_routine.exit, label %23, !llvm.loop !10

set_heuristic_routine.exit:                       ; preds = %29, %2, %27, %._crit_edge, %0
  ret void
}